target datalayout = "e-m:e-p270:32:32-p271:32:32-p272:64:64-i64:64-i128:128-f80:128-n8:16:32:64-S128"
target triple = "x86_64-pc-linux-gnu"

%"class.rocksdb::PointLockTracker" = type { %"class.rocksdb::LockTracker", %"class.std::unordered_map" }
%"class.rocksdb::LockTracker" = type { ptr }
%"class.std::unordered_map" = type { %"class.std::_Hashtable" }
%"class.std::_Hashtable" = type { ptr, i64, %"struct.std::__detail::_Hash_node_base", i64, %"struct.std::__detail::_Prime_rehash_policy", ptr }
%"struct.std::__detail::_Hash_node_base" = type { ptr }
%"struct.std::__detail::_Prime_rehash_policy" = type { float, i64 }
%"class.std::unordered_map.5" = type { %"class.std::_Hashtable.6" }
%"class.std::_Hashtable.6" = type { ptr, i64, %"struct.std::__detail::_Hash_node_base", i64, %"struct.std::__detail::_Prime_rehash_policy", ptr }
%"struct.std::__detail::_Node_iterator_base.28" = type { ptr }
%"struct.std::pair.29" = type { i32, %"class.std::unordered_map.5" }
%"struct.std::__detail::_Node_const_iterator" = type { %"struct.std::__detail::_Node_iterator_base.28" }
%"struct.std::__detail::_Hash_node_value_base" = type { %"struct.__gnu_cxx::__aligned_buffer" }
%"struct.__gnu_cxx::__aligned_buffer" = type { %"union.std::aligned_storage<64, 8>::type" }
%"union.std::aligned_storage<64, 8>::type" = type { [64 x i8] }

; Function Attrs: mustprogress nounwind uwtable
define linkonce_odr noundef ptr @_ZN9__gnu_cxx16__aligned_bufferISt4pairIKjSt13unordered_mapINSt7__cxx1112basic_stringIcSt11char_traitsIcESaIcEEEN7rocksdb14TrackedKeyInfoESt4hashIS9_ESt8equal_toIS9_ESaIS1_IKS9_SB_EEEEE7_M_addrEv(ptr noundef nonnull align 8 dereferenceable(64) %0) #3 comdat align 2 {
  %2 = alloca ptr, align 8
  store ptr %0, ptr %2, align 8, !tbaa !184
  %3 = load ptr, ptr %2, align 8
  %4 = getelementptr inbounds nuw %"struct.__gnu_cxx::__aligned_buffer", ptr %3, i32 0, i32 0
  ret ptr %4
}

; Function Attrs: mustprogress nounwind uwtable
define linkonce_odr noundef ptr @_ZN9__gnu_cxx16__aligned_bufferISt4pairIKjSt13unordered_mapINSt7__cxx1112basic_stringIcSt11char_traitsIcESaIcEEEN7rocksdb14TrackedKeyInfoESt4hashIS9_ESt8equal_toIS9_ESaIS1_IKS9_SB_EEEEE6_M_ptrEv(ptr noundef nonnull align 8 dereferenceable(64) %0) #3 comdat align 2 {
  %2 = alloca ptr, align 8
  store ptr %0, ptr %2, align 8, !tbaa !184
  %3 = load ptr, ptr %2, align 8
  %4 = call noundef ptr @_ZN9__gnu_cxx16__aligned_bufferISt4pairIKjSt13unordered_mapINSt7__cxx1112basic_stringIcSt11char_traitsIcESaIcEEEN7rocksdb14TrackedKeyInfoESt4hashIS9_ESt8equal_toIS9_ESaIS1_IKS9_SB_EEEEE7_M_addrEv(ptr noundef nonnull align 8 dereferenceable(64) %3) #16
  ret ptr %4
}

; Function Attrs: mustprogress nounwind uwtable
define linkonce_odr void @_ZNSt8__detail19_Node_iterator_baseISt4pairIKjSt13unordered_mapINSt7__cxx1112basic_stringIcSt11char_traitsIcESaIcEEEN7rocksdb14TrackedKeyInfoESt4hashIS9_ESt8equal_toIS9_ESaIS1_IKS9_SB_EEEELb0EEC2EPNS_10_Hash_nodeISK_Lb0EEE(ptr noundef nonnull align 8 dereferenceable(8) %0, ptr noundef %1) unnamed_addr #3 comdat align 2 {
  %3 = alloca ptr, align 8
  %4 = alloca ptr, align 8
  store ptr %0, ptr %3, align 8, !tbaa !52
  store ptr %1, ptr %4, align 8, !tbaa !151
  %5 = load ptr, ptr %3, align 8
  %6 = getelementptr inbounds nuw %"struct.std::__detail::_Node_iterator_base.28", ptr %5, i32 0, i32 0
  %7 = load ptr, ptr %4, align 8, !tbaa !151
  store ptr %7, ptr %6, align 8, !tbaa !54
  ret void
}

; Function Attrs: mustprogress nounwind uwtable
define linkonce_odr noundef ptr @_ZNKSt8__detail10_Hash_nodeISt4pairIKjSt13unordered_mapINSt7__cxx1112basic_stringIcSt11char_traitsIcESaIcEEEN7rocksdb14TrackedKeyInfoESt4hashIS9_ESt8equal_toIS9_ESaIS1_IKS9_SB_EEEELb0EE7_M_nextEv(ptr noundef nonnull align 8 dereferenceable(72) %0) #3 comdat align 2 {
  %2 = alloca ptr, align 8
  store ptr %0, ptr %2, align 8, !tbaa !151
  %3 = load ptr, ptr %2, align 8
  %4 = getelementptr inbounds nuw %"struct.std::__detail::_Hash_node_base", ptr %3, i32 0, i32 0
  %5 = load ptr, ptr %4, align 8, !tbaa !116
  ret ptr %5
}

; Function Attrs: mustprogress nounwind uwtable
define linkonce_odr noundef ptr @_ZNSt8__detail21_Hash_node_value_baseISt4pairIKjSt13unordered_mapINSt7__cxx1112basic_stringIcSt11char_traitsIcESaIcEEEN7rocksdb14TrackedKeyInfoESt4hashIS9_ESt8equal_toIS9_ESaIS1_IKS9_SB_EEEEE9_M_valptrEv(ptr noundef nonnull align 8 dereferenceable(64) %0) #3 comdat align 2 {
  %2 = alloca ptr, align 8
  store ptr %0, ptr %2, align 8, !tbaa !158
  %3 = load ptr, ptr %2, align 8
  %4 = getelementptr inbounds nuw %"struct.std::__detail::_Hash_node_value_base", ptr %3, i32 0, i32 0
  %5 = call noundef ptr @_ZN9__gnu_cxx16__aligned_bufferISt4pairIKjSt13unordered_mapINSt7__cxx1112basic_stringIcSt11char_traitsIcESaIcEEEN7rocksdb14TrackedKeyInfoESt4hashIS9_ESt8equal_toIS9_ESaIS1_IKS9_SB_EEEEE6_M_ptrEv(ptr noundef nonnull align 8 dereferenceable(64) %4) #16
  ret ptr %5
}

; Function Attrs: mustprogress nounwind uwtable
define linkonce_odr void @_ZNSt8__detail20_Node_const_iteratorISt4pairIKjSt13unordered_mapINSt7__cxx1112basic_stringIcSt11char_traitsIcESaIcEEEN7rocksdb14TrackedKeyInfoESt4hashIS9_ESt8equal_toIS9_ESaIS1_IKS9_SB_EEEELb0ELb0EEC2EPNS_10_Hash_nodeISK_Lb0EEE(ptr noundef nonnull align 8 dereferenceable(8) %0, ptr noundef %1) unnamed_addr #3 comdat align 2 {
  %3 = alloca ptr, align 8
  %4 = alloca ptr, align 8
  store ptr %0, ptr %3, align 8, !tbaa !78
  store ptr %1, ptr %4, align 8, !tbaa !151
  %5 = load ptr, ptr %3, align 8
  %6 = load ptr, ptr %4, align 8, !tbaa !151
  call void @_ZNSt8__detail19_Node_iterator_baseISt4pairIKjSt13unordered_mapINSt7__cxx1112basic_stringIcSt11char_traitsIcESaIcEEEN7rocksdb14TrackedKeyInfoESt4hashIS9_ESt8equal_toIS9_ESaIS1_IKS9_SB_EEEELb0EEC2EPNS_10_Hash_nodeISK_Lb0EEE(ptr noundef nonnull align 8 dereferenceable(8) %5, ptr noundef %6) #16
  ret void
}

; Function Attrs: mustprogress nounwind uwtable
define linkonce_odr noundef ptr @_ZNKSt10_HashtableIjSt4pairIKjSt13unordered_mapINSt7__cxx1112basic_stringIcSt11char_traitsIcESaIcEEEN7rocksdb14TrackedKeyInfoESt4hashIS8_ESt8equal_toIS8_ESaIS0_IKS8_SA_EEEESaISJ_ENSt8__detail10_Select1stESD_IjESB_IjENSL_18_Mod_range_hashingENSL_20_Default_ranged_hashENSL_20_Prime_rehash_policyENSL_17_Hashtable_traitsILb0ELb0ELb1EEEE8_M_beginEv(ptr noundef nonnull align 8 dereferenceable(56) %0) #3 comdat align 2 {
  %2 = alloca ptr, align 8
  store ptr %0, ptr %2, align 8, !tbaa !104
  %3 = load ptr, ptr %2, align 8
  %4 = getelementptr inbounds nuw %"class.std::_Hashtable", ptr %3, i32 0, i32 2
  %5 = getelementptr inbounds nuw %"struct.std::__detail::_Hash_node_base", ptr %4, i32 0, i32 0
  %6 = load ptr, ptr %5, align 8, !tbaa !155
  ret ptr %6
}

; Function Attrs: mustprogress nounwind uwtable
define linkonce_odr void @_ZNSt8__detail19_Node_iterator_baseISt4pairIKjSt13unordered_mapINSt7__cxx1112basic_stringIcSt11char_traitsIcESaIcEEEN7rocksdb14TrackedKeyInfoESt4hashIS9_ESt8equal_toIS9_ESaIS1_IKS9_SB_EEEELb0EE7_M_incrEv(ptr noundef nonnull align 8 dereferenceable(8) %0) #3 comdat align 2 {
  %2 = alloca ptr, align 8
  store ptr %0, ptr %2, align 8, !tbaa !52
  %3 = load ptr, ptr %2, align 8
  %4 = getelementptr inbounds nuw %"struct.std::__detail::_Node_iterator_base.28", ptr %3, i32 0, i32 0
  %5 = load ptr, ptr %4, align 8, !tbaa !54
  %6 = call noundef ptr @_ZNKSt8__detail10_Hash_nodeISt4pairIKjSt13unordered_mapINSt7__cxx1112basic_stringIcSt11char_traitsIcESaIcEEEN7rocksdb14TrackedKeyInfoESt4hashIS9_ESt8equal_toIS9_ESaIS1_IKS9_SB_EEEELb0EE7_M_nextEv(ptr noundef nonnull align 8 dereferenceable(72) %5) #16
  %7 = getelementptr inbounds nuw %"struct.std::__detail::_Node_iterator_base.28", ptr %3, i32 0, i32 0
  store ptr %6, ptr %7, align 8, !tbaa !54
  ret void
}

; Function Attrs: mustprogress nounwind uwtable
define linkonce_odr noundef i64 @_ZNKSt10_HashtableINSt7__cxx1112basic_stringIcSt11char_traitsIcESaIcEEESt4pairIKS5_N7rocksdb14TrackedKeyInfoEESaISA_ENSt8__detail10_Select1stESt8equal_toIS5_ESt4hashIS5_ENSC_18_Mod_range_hashingENSC_20_Default_ranged_hashENSC_20_Prime_rehash_policyENSC_17_Hashtable_traitsILb1ELb0ELb1EEEE4sizeEv(ptr noundef nonnull align 8 dereferenceable(56) %0) #3 comdat align 2 {
  %2 = alloca ptr, align 8
  store ptr %0, ptr %2, align 8, !tbaa !160
  %3 = load ptr, ptr %2, align 8
  %4 = getelementptr inbounds nuw %"class.std::_Hashtable.6", ptr %3, i32 0, i32 3
  %5 = load i64, ptr %4, align 8, !tbaa !164
  ret i64 %5
}

; Function Attrs: mustprogress nounwind uwtable
define linkonce_odr noundef nonnull align 8 dereferenceable(64) ptr @_ZNSt8__detail21_Hash_node_value_baseISt4pairIKjSt13unordered_mapINSt7__cxx1112basic_stringIcSt11char_traitsIcESaIcEEEN7rocksdb14TrackedKeyInfoESt4hashIS9_ESt8equal_toIS9_ESaIS1_IKS9_SB_EEEEE4_M_vEv(ptr noundef nonnull align 8 dereferenceable(64) %0) #3 comdat align 2 {
  %2 = alloca ptr, align 8
  store ptr %0, ptr %2, align 8, !tbaa !158
  %3 = load ptr, ptr %2, align 8
  %4 = call noundef ptr @_ZNSt8__detail21_Hash_node_value_baseISt4pairIKjSt13unordered_mapINSt7__cxx1112basic_stringIcSt11char_traitsIcESaIcEEEN7rocksdb14TrackedKeyInfoESt4hashIS9_ESt8equal_toIS9_ESaIS1_IKS9_SB_EEEEE9_M_valptrEv(ptr noundef nonnull align 8 dereferenceable(64) %3) #16
  ret ptr %4
}

; Function Attrs: mustprogress nounwind uwtable
define linkonce_odr ptr @_ZNKSt10_HashtableIjSt4pairIKjSt13unordered_mapINSt7__cxx1112basic_stringIcSt11char_traitsIcESaIcEEEN7rocksdb14TrackedKeyInfoESt4hashIS8_ESt8equal_toIS8_ESaIS0_IKS8_SA_EEEESaISJ_ENSt8__detail10_Select1stESD_IjESB_IjENSL_18_Mod_range_hashingENSL_20_Default_ranged_hashENSL_20_Prime_rehash_policyENSL_17_Hashtable_traitsILb0ELb0ELb1EEEE3endEv(ptr noundef nonnull align 8 dereferenceable(56) %0) #3 comdat align 2 {
  %2 = alloca %"struct.std::__detail::_Node_const_iterator", align 8
  %3 = alloca ptr, align 8
  store ptr %0, ptr %3, align 8, !tbaa !104
  call void @_ZNSt8__detail20_Node_const_iteratorISt4pairIKjSt13unordered_mapINSt7__cxx1112basic_stringIcSt11char_traitsIcESaIcEEEN7rocksdb14TrackedKeyInfoESt4hashIS9_ESt8equal_toIS9_ESaIS1_IKS9_SB_EEEELb0ELb0EEC2EPNS_10_Hash_nodeISK_Lb0EEE(ptr noundef nonnull align 8 dereferenceable(8) %2, ptr noundef null) #16
  %4 = getelementptr inbounds nuw %"struct.std::__detail::_Node_const_iterator", ptr %2, i32 0, i32 0
  %5 = getelementptr inbounds nuw %"struct.std::__detail::_Node_iterator_base.28", ptr %4, i32 0, i32 0
  %6 = load ptr, ptr %5, align 8
  ret ptr %6
}

; Function Attrs: mustprogress nounwind uwtable
define linkonce_odr ptr @_ZNKSt10_HashtableIjSt4pairIKjSt13unordered_mapINSt7__cxx1112basic_stringIcSt11char_traitsIcESaIcEEEN7rocksdb14TrackedKeyInfoESt4hashIS8_ESt8equal_toIS8_ESaIS0_IKS8_SA_EEEESaISJ_ENSt8__detail10_Select1stESD_IjESB_IjENSL_18_Mod_range_hashingENSL_20_Default_ranged_hashENSL_20_Prime_rehash_policyENSL_17_Hashtable_traitsILb0ELb0ELb1EEEE5beginEv(ptr noundef nonnull align 8 dereferenceable(56) %0) #3 comdat align 2 {
  %2 = alloca %"struct.std::__detail::_Node_const_iterator", align 8
  %3 = alloca ptr, align 8
  store ptr %0, ptr %3, align 8, !tbaa !104
  %4 = load ptr, ptr %3, align 8
  %5 = call noundef ptr @_ZNKSt10_HashtableIjSt4pairIKjSt13unordered_mapINSt7__cxx1112basic_stringIcSt11char_traitsIcESaIcEEEN7rocksdb14TrackedKeyInfoESt4hashIS8_ESt8equal_toIS8_ESaIS0_IKS8_SA_EEEESaISJ_ENSt8__detail10_Select1stESD_IjESB_IjENSL_18_Mod_range_hashingENSL_20_Default_ranged_hashENSL_20_Prime_rehash_policyENSL_17_Hashtable_traitsILb0ELb0ELb1EEEE8_M_beginEv(ptr noundef nonnull align 8 dereferenceable(56) %4)
  call void @_ZNSt8__detail20_Node_const_iteratorISt4pairIKjSt13unordered_mapINSt7__cxx1112basic_stringIcSt11char_traitsIcESaIcEEEN7rocksdb14TrackedKeyInfoESt4hashIS9_ESt8equal_toIS9_ESaIS1_IKS9_SB_EEEELb0ELb0EEC2EPNS_10_Hash_nodeISK_Lb0EEE(ptr noundef nonnull align 8 dereferenceable(8) %2, ptr noundef %5) #16
  %6 = getelementptr inbounds nuw %"struct.std::__detail::_Node_const_iterator", ptr %2, i32 0, i32 0
  %7 = getelementptr inbounds nuw %"struct.std::__detail::_Node_iterator_base.28", ptr %6, i32 0, i32 0
  %8 = load ptr, ptr %7, align 8
  ret ptr %8
}

; Function Attrs: mustprogress nounwind uwtable
define linkonce_odr noundef nonnull align 8 dereferenceable(8) ptr @_ZNSt8__detail20_Node_const_iteratorISt4pairIKjSt13unordered_mapINSt7__cxx1112basic_stringIcSt11char_traitsIcESaIcEEEN7rocksdb14TrackedKeyInfoESt4hashIS9_ESt8equal_toIS9_ESaIS1_IKS9_SB_EEEELb0ELb0EEppEv(ptr noundef nonnull align 8 dereferenceable(8) %0) #3 comdat align 2 {
  %2 = alloca ptr, align 8
  store ptr %0, ptr %2, align 8, !tbaa !78
  %3 = load ptr, ptr %2, align 8
  call void @_ZNSt8__detail19_Node_iterator_baseISt4pairIKjSt13unordered_mapINSt7__cxx1112basic_stringIcSt11char_traitsIcESaIcEEEN7rocksdb14TrackedKeyInfoESt4hashIS9_ESt8equal_toIS9_ESaIS1_IKS9_SB_EEEELb0EE7_M_incrEv(ptr noundef nonnull align 8 dereferenceable(8) %3) #16
  ret ptr %3
}

; Function Attrs: mustprogress nounwind uwtable
define linkonce_odr noundef i64 @_ZNKSt13unordered_mapINSt7__cxx1112basic_stringIcSt11char_traitsIcESaIcEEEN7rocksdb14TrackedKeyInfoESt4hashIS5_ESt8equal_toIS5_ESaISt4pairIKS5_S7_EEE4sizeEv(ptr noundef nonnull align 8 dereferenceable(56) %0) #3 comdat align 2 {
  %2 = alloca ptr, align 8
  store ptr %0, ptr %2, align 8, !tbaa !11
  %3 = load ptr, ptr %2, align 8
  %4 = getelementptr inbounds nuw %"class.std::unordered_map.5", ptr %3, i32 0, i32 0
  %5 = call noundef i64 @_ZNKSt10_HashtableINSt7__cxx1112basic_stringIcSt11char_traitsIcESaIcEEESt4pairIKS5_N7rocksdb14TrackedKeyInfoEESaISA_ENSt8__detail10_Select1stESt8equal_toIS5_ESt4hashIS5_ENSC_18_Mod_range_hashingENSC_20_Default_ranged_hashENSC_20_Prime_rehash_policyENSC_17_Hashtable_traitsILb1ELb0ELb1EEEE4sizeEv(ptr noundef nonnull align 8 dereferenceable(56) %4) #16
  ret i64 %5
}

; Function Attrs: mustprogress nounwind uwtable
define linkonce_odr noundef nonnull align 8 dereferenceable(64) ptr @_ZNKSt8__detail20_Node_const_iteratorISt4pairIKjSt13unordered_mapINSt7__cxx1112basic_stringIcSt11char_traitsIcESaIcEEEN7rocksdb14TrackedKeyInfoESt4hashIS9_ESt8equal_toIS9_ESaIS1_IKS9_SB_EEEELb0ELb0EEdeEv(ptr noundef nonnull align 8 dereferenceable(8) %0) #3 comdat align 2 {
  %2 = alloca ptr, align 8
  store ptr %0, ptr %2, align 8, !tbaa !78
  %3 = load ptr, ptr %2, align 8
  %4 = getelementptr inbounds nuw %"struct.std::__detail::_Node_iterator_base.28", ptr %3, i32 0, i32 0
  %5 = load ptr, ptr %4, align 8, !tbaa !54
  %6 = getelementptr inbounds i8, ptr %5, i64 8
  %7 = call noundef nonnull align 8 dereferenceable(64) ptr @_ZNSt8__detail21_Hash_node_value_baseISt4pairIKjSt13unordered_mapINSt7__cxx1112basic_stringIcSt11char_traitsIcESaIcEEEN7rocksdb14TrackedKeyInfoESt4hashIS9_ESt8equal_toIS9_ESaIS1_IKS9_SB_EEEEE4_M_vEv(ptr noundef nonnull align 8 dereferenceable(64) %6) #16
  ret ptr %7
}

; Function Attrs: mustprogress nounwind uwtable
define linkonce_odr noundef zeroext i1 @_ZNSt8__detailneERKNS_19_Node_iterator_baseISt4pairIKjSt13unordered_mapINSt7__cxx1112basic_stringIcSt11char_traitsIcESaIcEEEN7rocksdb14TrackedKeyInfoESt4hashIS9_ESt8equal_toIS9_ESaIS1_IKS9_SB_EEEELb0EEESN_(ptr noundef nonnull align 8 dereferenceable(8) %0, ptr noundef nonnull align 8 dereferenceable(8) %1) #3 comdat {
  %3 = alloca ptr, align 8
  %4 = alloca ptr, align 8
  store ptr %0, ptr %3, align 8, !tbaa !52
  store ptr %1, ptr %4, align 8, !tbaa !52
  %5 = load ptr, ptr %3, align 8, !tbaa !52
  %6 = getelementptr inbounds nuw %"struct.std::__detail::_Node_iterator_base.28", ptr %5, i32 0, i32 0
  %7 = load ptr, ptr %6, align 8, !tbaa !54
  %8 = load ptr, ptr %4, align 8, !tbaa !52
  %9 = getelementptr inbounds nuw %"struct.std::__detail::_Node_iterator_base.28", ptr %8, i32 0, i32 0
  %10 = load ptr, ptr %9, align 8, !tbaa !54
  %11 = icmp ne ptr %7, %10
  ret i1 %11
}

; Function Attrs: mustprogress nounwind uwtable
define linkonce_odr ptr @_ZNKSt13unordered_mapIjS_INSt7__cxx1112basic_stringIcSt11char_traitsIcESaIcEEEN7rocksdb14TrackedKeyInfoESt4hashIS5_ESt8equal_toIS5_ESaISt4pairIKS5_S7_EEES8_IjESA_IjESaISC_IKjSG_EEE3endEv(ptr noundef nonnull align 8 dereferenceable(56) %0) #3 comdat align 2 {
  %2 = alloca %"struct.std::__detail::_Node_const_iterator", align 8
  %3 = alloca ptr, align 8
  store ptr %0, ptr %3, align 8, !tbaa !36
  %4 = load ptr, ptr %3, align 8
  %5 = getelementptr inbounds nuw %"class.std::unordered_map", ptr %4, i32 0, i32 0
  %6 = call ptr @_ZNKSt10_HashtableIjSt4pairIKjSt13unordered_mapINSt7__cxx1112basic_stringIcSt11char_traitsIcESaIcEEEN7rocksdb14TrackedKeyInfoESt4hashIS8_ESt8equal_toIS8_ESaIS0_IKS8_SA_EEEESaISJ_ENSt8__detail10_Select1stESD_IjESB_IjENSL_18_Mod_range_hashingENSL_20_Default_ranged_hashENSL_20_Prime_rehash_policyENSL_17_Hashtable_traitsILb0ELb0ELb1EEEE3endEv(ptr noundef nonnull align 8 dereferenceable(56) %5) #16
  %7 = getelementptr inbounds nuw %"struct.std::__detail::_Node_const_iterator", ptr %2, i32 0, i32 0
  %8 = getelementptr inbounds nuw %"struct.std::__detail::_Node_iterator_base.28", ptr %7, i32 0, i32 0
  store ptr %6, ptr %8, align 8
  %9 = getelementptr inbounds nuw %"struct.std::__detail::_Node_const_iterator", ptr %2, i32 0, i32 0
  %10 = getelementptr inbounds nuw %"struct.std::__detail::_Node_iterator_base.28", ptr %9, i32 0, i32 0
  %11 = load ptr, ptr %10, align 8
  ret ptr %11
}

; Function Attrs: mustprogress nounwind uwtable
define linkonce_odr ptr @_ZNKSt13unordered_mapIjS_INSt7__cxx1112basic_stringIcSt11char_traitsIcESaIcEEEN7rocksdb14TrackedKeyInfoESt4hashIS5_ESt8equal_toIS5_ESaISt4pairIKS5_S7_EEES8_IjESA_IjESaISC_IKjSG_EEE5beginEv(ptr noundef nonnull align 8 dereferenceable(56) %0) #3 comdat align 2 {
  %2 = alloca %"struct.std::__detail::_Node_const_iterator", align 8
  %3 = alloca ptr, align 8
  store ptr %0, ptr %3, align 8, !tbaa !36
  %4 = load ptr, ptr %3, align 8
  %5 = getelementptr inbounds nuw %"class.std::unordered_map", ptr %4, i32 0, i32 0
  %6 = call ptr @_ZNKSt10_HashtableIjSt4pairIKjSt13unordered_mapINSt7__cxx1112basic_stringIcSt11char_traitsIcESaIcEEEN7rocksdb14TrackedKeyInfoESt4hashIS8_ESt8equal_toIS8_ESaIS0_IKS8_SA_EEEESaISJ_ENSt8__detail10_Select1stESD_IjESB_IjENSL_18_Mod_range_hashingENSL_20_Default_ranged_hashENSL_20_Prime_rehash_policyENSL_17_Hashtable_traitsILb0ELb0ELb1EEEE5beginEv(ptr noundef nonnull align 8 dereferenceable(56) %5) #16
  %7 = getelementptr inbounds nuw %"struct.std::__detail::_Node_const_iterator", ptr %2, i32 0, i32 0
  %8 = getelementptr inbounds nuw %"struct.std::__detail::_Node_iterator_base.28", ptr %7, i32 0, i32 0
  store ptr %6, ptr %8, align 8
  %9 = getelementptr inbounds nuw %"struct.std::__detail::_Node_const_iterator", ptr %2, i32 0, i32 0
  %10 = getelementptr inbounds nuw %"struct.std::__detail::_Node_iterator_base.28", ptr %9, i32 0, i32 0
  %11 = load ptr, ptr %10, align 8
  ret ptr %11
}

; Function Attrs: mustprogress nounwind uwtable
define noundef i64 @_ZNK7rocksdb16PointLockTracker16GetNumPointLocksEv(ptr noundef nonnull align 8 dereferenceable(64) %0) unnamed_addr #3 align 2 {
  %2 = alloca ptr, align 8
  %3 = alloca i64, align 8
  %4 = alloca ptr, align 8
  %5 = alloca %"struct.std::__detail::_Node_const_iterator", align 8
  %6 = alloca %"struct.std::__detail::_Node_const_iterator", align 8
  %7 = alloca ptr, align 8
  store ptr %0, ptr %2, align 8, !tbaa !4
  %8 = load ptr, ptr %2, align 8
  call void @llvm.lifetime.start.p0(i64 8, ptr %3) #16
  store i64 0, ptr %3, align 8, !tbaa !93
  call void @llvm.lifetime.start.p0(i64 8, ptr %4) #16
  %9 = getelementptr inbounds nuw %"class.rocksdb::PointLockTracker", ptr %8, i32 0, i32 1
  store ptr %9, ptr %4, align 8, !tbaa !36
  call void @llvm.lifetime.start.p0(i64 8, ptr %5) #16
  %10 = load ptr, ptr %4, align 8, !tbaa !36
  %11 = call ptr @_ZNKSt13unordered_mapIjS_INSt7__cxx1112basic_stringIcSt11char_traitsIcESaIcEEEN7rocksdb14TrackedKeyInfoESt4hashIS5_ESt8equal_toIS5_ESaISt4pairIKS5_S7_EEES8_IjESA_IjESaISC_IKjSG_EEE5beginEv(ptr noundef nonnull align 8 dereferenceable(56) %10) #16
  %12 = getelementptr inbounds nuw %"struct.std::__detail::_Node_const_iterator", ptr %5, i32 0, i32 0
  %13 = getelementptr inbounds nuw %"struct.std::__detail::_Node_iterator_base.28", ptr %12, i32 0, i32 0
  store ptr %11, ptr %13, align 8
  call void @llvm.lifetime.start.p0(i64 8, ptr %6) #16
  %14 = load ptr, ptr %4, align 8, !tbaa !36
  %15 = call ptr @_ZNKSt13unordered_mapIjS_INSt7__cxx1112basic_stringIcSt11char_traitsIcESaIcEEEN7rocksdb14TrackedKeyInfoESt4hashIS5_ESt8equal_toIS5_ESaISt4pairIKS5_S7_EEES8_IjESA_IjESaISC_IKjSG_EEE3endEv(ptr noundef nonnull align 8 dereferenceable(56) %14) #16
  %16 = getelementptr inbounds nuw %"struct.std::__detail::_Node_const_iterator", ptr %6, i32 0, i32 0
  %17 = getelementptr inbounds nuw %"struct.std::__detail::_Node_iterator_base.28", ptr %16, i32 0, i32 0
  store ptr %15, ptr %17, align 8
  br label %18

18:                                               ; preds = %28, %1
  %19 = call noundef zeroext i1 @_ZNSt8__detailneERKNS_19_Node_iterator_baseISt4pairIKjSt13unordered_mapINSt7__cxx1112basic_stringIcSt11char_traitsIcESaIcEEEN7rocksdb14TrackedKeyInfoESt4hashIS9_ESt8equal_toIS9_ESaIS1_IKS9_SB_EEEELb0EEESN_(ptr noundef nonnull align 8 dereferenceable(8) %5, ptr noundef nonnull align 8 dereferenceable(8) %6) #16
  br i1 %19, label %21, label %20

20:                                               ; preds = %18
  call void @llvm.lifetime.end.p0(i64 8, ptr %6) #16
  call void @llvm.lifetime.end.p0(i64 8, ptr %5) #16
  call void @llvm.lifetime.end.p0(i64 8, ptr %4) #16
  br label %30

21:                                               ; preds = %18
  call void @llvm.lifetime.start.p0(i64 8, ptr %7) #16
  %22 = call noundef nonnull align 8 dereferenceable(64) ptr @_ZNKSt8__detail20_Node_const_iteratorISt4pairIKjSt13unordered_mapINSt7__cxx1112basic_stringIcSt11char_traitsIcESaIcEEEN7rocksdb14TrackedKeyInfoESt4hashIS9_ESt8equal_toIS9_ESaIS1_IKS9_SB_EEEELb0ELb0EEdeEv(ptr noundef nonnull align 8 dereferenceable(8) %5) #16
  store ptr %22, ptr %7, align 8, !tbaa !63
  %23 = load ptr, ptr %7, align 8, !tbaa !63
  %24 = getelementptr inbounds nuw %"struct.std::pair.29", ptr %23, i32 0, i32 1
  %25 = call noundef i64 @_ZNKSt13unordered_mapINSt7__cxx1112basic_stringIcSt11char_traitsIcESaIcEEEN7rocksdb14TrackedKeyInfoESt4hashIS5_ESt8equal_toIS5_ESaISt4pairIKS5_S7_EEE4sizeEv(ptr noundef nonnull align 8 dereferenceable(56) %24) #16
  %26 = load i64, ptr %3, align 8, !tbaa !93
  %27 = add i64 %26, %25
  store i64 %27, ptr %3, align 8, !tbaa !93
  call void @llvm.lifetime.end.p0(i64 8, ptr %7) #16
  br label %28

28:                                               ; preds = %21
  %29 = call noundef nonnull align 8 dereferenceable(8) ptr @_ZNSt8__detail20_Node_const_iteratorISt4pairIKjSt13unordered_mapINSt7__cxx1112basic_stringIcSt11char_traitsIcESaIcEEEN7rocksdb14TrackedKeyInfoESt4hashIS9_ESt8equal_toIS9_ESaIS1_IKS9_SB_EEEELb0ELb0EEppEv(ptr noundef nonnull align 8 dereferenceable(8) %5) #16
  br label %18

30:                                               ; preds = %20
  %31 = load i64, ptr %3, align 8, !tbaa !93
  call void @llvm.lifetime.end.p0(i64 8, ptr %3) #16
  ret i64 %31
}