; Function Attrs: mustprogress nofree norecurse nosync nounwind willreturn memory(read, inaccessiblemem: none) uwtable
define noundef i64 @_ZNK7rocksdb16PointLockTracker16GetNumPointLocksEv(ptr noundef nonnull readonly align 8 captures(none) dereferenceable(64) %0) unnamed_addr #5 align 2 {
  %2 = getelementptr inbounds nuw i8, ptr %0, i64 24
  %.sroa.05.08 = load ptr, ptr %2, align 8, !tbaa !32
  %.not9 = icmp eq ptr %.sroa.05.08, null
  br i1 %.not9, label %._crit_edge, label %.lr.ph

._crit_edge:                                      ; preds = %.lr.ph, %1
  %.0.lcssa = phi i64 [ 0, %1 ], [ %5, %.lr.ph ]
  ret i64 %.0.lcssa

.lr.ph:                                           ; preds = %1, %.lr.ph
  %.sroa.05.011 = phi ptr [ %.sroa.05.0, %.lr.ph ], [ %.sroa.05.08, %1 ]
  %.010 = phi i64 [ %5, %.lr.ph ], [ 0, %1 ]
  %3 = getelementptr inbounds nuw i8, ptr %.sroa.05.011, i64 40
  %4 = load i64, ptr %3, align 8, !tbaa !52
  %5 = add i64 %4, %.010
  %.sroa.05.0 = load ptr, ptr %.sroa.05.011, align 8, !tbaa !32
  %.not = icmp eq ptr %.sroa.05.0, null
  br i1 %.not, label %._crit_edge, label %.lr.ph
}